target datalayout = "e-m:e-p270:32:32-p271:32:32-p272:64:64-i64:64-i128:128-f80:128-n8:16:32:64-S128"
target triple = "x86_64-pc-linux-gnu"

; Function Attrs: inlinehint mustprogress nounwind uwtable
define linkonce_odr noundef float @_ZSt4sqrtf(float noundef %0) #2 comdat {
  %2 = alloca float, align 4
  store float %0, ptr %2, align 4, !tbaa !11
  %3 = load float, ptr %2, align 4, !tbaa !11
  %4 = call float @sqrtf(float noundef %3) #15, !tbaa !7
  ret float %4
}

; Function Attrs: mustprogress uwtable
define internal noundef float @_ZL9icvDistL2PKfS0_Pv(ptr noundef %0, ptr noundef %1, ptr noundef %2) #0 {
  %4 = alloca ptr, align 8
  %5 = alloca ptr, align 8
  %6 = alloca ptr, align 8
  %7 = alloca i32, align 4
  %8 = alloca i32, align 4
  %9 = alloca double, align 8
  %10 = alloca double, align 8
  store ptr %0, ptr %4, align 8, !tbaa !9
  store ptr %1, ptr %5, align 8, !tbaa !9
  store ptr %2, ptr %6, align 8, !tbaa !3
  call void @llvm.lifetime.start.p0(i64 4, ptr %7) #15
  call void @llvm.lifetime.start.p0(i64 4, ptr %8) #15
  %11 = load ptr, ptr %6, align 8, !tbaa !3
  %12 = ptrtoint ptr %11 to i64
  %13 = trunc i64 %12 to i32
  store i32 %13, ptr %8, align 4, !tbaa !7
  call void @llvm.lifetime.start.p0(i64 8, ptr %9) #15
  store double 0.000000e+00, ptr %9, align 8, !tbaa !13
  store i32 0, ptr %7, align 4, !tbaa !7
  br label %14

14:                                               ; preds = %35, %3
  %15 = load i32, ptr %7, align 4, !tbaa !7
  %16 = load i32, ptr %8, align 4, !tbaa !7
  %17 = icmp slt i32 %15, %16
  br i1 %17, label %18, label %38

18:                                               ; preds = %14
  call void @llvm.lifetime.start.p0(i64 8, ptr %10) #15
  %19 = load ptr, ptr %4, align 8, !tbaa !9
  %20 = load i32, ptr %7, align 4, !tbaa !7
  %21 = sext i32 %20 to i64
  %22 = getelementptr inbounds float, ptr %19, i64 %21
  %23 = load float, ptr %22, align 4, !tbaa !11
  %24 = load ptr, ptr %5, align 8, !tbaa !9
  %25 = load i32, ptr %7, align 4, !tbaa !7
  %26 = sext i32 %25 to i64
  %27 = getelementptr inbounds float, ptr %24, i64 %26
  %28 = load float, ptr %27, align 4, !tbaa !11
  %29 = fsub float %23, %28
  %30 = fpext float %29 to double
  store double %30, ptr %10, align 8, !tbaa !13
  %31 = load double, ptr %10, align 8, !tbaa !13
  %32 = load double, ptr %10, align 8, !tbaa !13
  %33 = load double, ptr %9, align 8, !tbaa !13
  %34 = call double @llvm.fmuladd.f64(double %31, double %32, double %33)
  store double %34, ptr %9, align 8, !tbaa !13
  call void @llvm.lifetime.end.p0(i64 8, ptr %10) #15
  br label %35

35:                                               ; preds = %18
  %36 = load i32, ptr %7, align 4, !tbaa !7
  %37 = add nsw i32 %36, 1
  store i32 %37, ptr %7, align 4, !tbaa !7
  br label %14, !llvm.loop !63

38:                                               ; preds = %14
  %39 = load double, ptr %9, align 8, !tbaa !13
  %40 = fptrunc double %39 to float
  %41 = call noundef float @_ZSt4sqrtf(float noundef %40)
  call void @llvm.lifetime.end.p0(i64 8, ptr %9) #15
  call void @llvm.lifetime.end.p0(i64 4, ptr %8) #15
  call void @llvm.lifetime.end.p0(i64 4, ptr %7) #15
  ret float %41
}